target datalayout = "e-m:e-p270:32:32-p271:32:32-p272:64:64-i64:64-i128:128-f80:128-n8:16:32:64-S128"
target triple = "x86_64-pc-linux-gnu"

%struct.AudioDeclickContext = type { ptr, double, double, double, double, double, i32, i32, i32, i32, i32, i32, i32, i32, ptr, ptr, ptr, ptr, ptr, ptr, i64, i32, i64, i64, i32, i32, ptr, ptr, ptr, ptr }

; Function Attrs: nounwind uwtable
define internal i32 @detect_clicks(ptr noundef %0, ptr noundef %1, double noundef %2, ptr noundef %3, ptr noundef %4, ptr noundef %5, ptr noundef %6, ptr noundef %7, ptr noundef %8) #1 {
  %10 = alloca ptr, align 8
  %11 = alloca ptr, align 8
  %12 = alloca double, align 8
  %13 = alloca ptr, align 8
  %14 = alloca ptr, align 8
  %15 = alloca ptr, align 8
  %16 = alloca ptr, align 8
  %17 = alloca ptr, align 8
  %18 = alloca ptr, align 8
  %19 = alloca double, align 8
  %20 = alloca i32, align 4
  %21 = alloca i32, align 4
  %22 = alloca i32, align 4
  %23 = alloca i32, align 4
  store ptr %0, ptr %10, align 8, !tbaa !22
  store ptr %1, ptr %11, align 8, !tbaa !42
  store double %2, ptr %12, align 8, !tbaa !72
  store ptr %3, ptr %13, align 8, !tbaa !66
  store ptr %4, ptr %14, align 8, !tbaa !66
  store ptr %5, ptr %15, align 8, !tbaa !65
  store ptr %6, ptr %16, align 8, !tbaa !115
  store ptr %7, ptr %17, align 8, !tbaa !66
  store ptr %8, ptr %18, align 8, !tbaa !66
  call void @llvm.lifetime.start.p0(i64 8, ptr %19) #11
  %24 = load ptr, ptr %10, align 8, !tbaa !22
  %25 = getelementptr inbounds nuw %struct.AudioDeclickContext, ptr %24, i32 0, i32 3
  %26 = load double, ptr %25, align 8, !tbaa !116
  store double %26, ptr %19, align 8, !tbaa !72
  call void @llvm.lifetime.start.p0(i64 4, ptr %20) #11
  call void @llvm.lifetime.start.p0(i64 4, ptr %21) #11
  call void @llvm.lifetime.start.p0(i64 4, ptr %22) #11
  store i32 0, ptr %22, align 4, !tbaa !40
  call void @llvm.lifetime.start.p0(i64 4, ptr %23) #11
  store i32 -1, ptr %23, align 4, !tbaa !40
  %27 = load ptr, ptr %13, align 8, !tbaa !66
  %28 = load ptr, ptr %10, align 8, !tbaa !22
  %29 = getelementptr inbounds nuw %struct.AudioDeclickContext, ptr %28, i32 0, i32 11
  %30 = load i32, ptr %29, align 4, !tbaa !55
  %31 = sext i32 %30 to i64
  %32 = mul i64 %31, 8
  call void @llvm.memset.p0.i64(ptr align 8 %27, i8 0, i64 %32, i1 false)
  %33 = load ptr, ptr %10, align 8, !tbaa !22
  %34 = getelementptr inbounds nuw %struct.AudioDeclickContext, ptr %33, i32 0, i32 9
  %35 = load i32, ptr %34, align 4, !tbaa !85
  store i32 %35, ptr %20, align 4, !tbaa !40
  br label %36

36:                                               ; preds = %72, %9
  %37 = load i32, ptr %20, align 4, !tbaa !40
  %38 = load ptr, ptr %10, align 8, !tbaa !22
  %39 = getelementptr inbounds nuw %struct.AudioDeclickContext, ptr %38, i32 0, i32 11
  %40 = load i32, ptr %39, align 4, !tbaa !55
  %41 = icmp slt i32 %37, %40
  br i1 %41, label %42, label %75

42:                                               ; preds = %36
  store i32 0, ptr %21, align 4, !tbaa !40
  br label %43

43:                                               ; preds = %68, %42
  %44 = load i32, ptr %21, align 4, !tbaa !40
  %45 = load ptr, ptr %10, align 8, !tbaa !22
  %46 = getelementptr inbounds nuw %struct.AudioDeclickContext, ptr %45, i32 0, i32 9
  %47 = load i32, ptr %46, align 4, !tbaa !85
  %48 = icmp sle i32 %44, %47
  br i1 %48, label %49, label %71

49:                                               ; preds = %43
  %50 = load ptr, ptr %14, align 8, !tbaa !66
  %51 = load i32, ptr %21, align 4, !tbaa !40
  %52 = sext i32 %51 to i64
  %53 = getelementptr inbounds double, ptr %50, i64 %52
  %54 = load double, ptr %53, align 8, !tbaa !72
  %55 = load ptr, ptr %17, align 8, !tbaa !66
  %56 = load i32, ptr %20, align 4, !tbaa !40
  %57 = load i32, ptr %21, align 4, !tbaa !40
  %58 = sub nsw i32 %56, %57
  %59 = sext i32 %58 to i64
  %60 = getelementptr inbounds double, ptr %55, i64 %59
  %61 = load double, ptr %60, align 8, !tbaa !72
  %62 = load ptr, ptr %13, align 8, !tbaa !66
  %63 = load i32, ptr %20, align 4, !tbaa !40
  %64 = sext i32 %63 to i64
  %65 = getelementptr inbounds double, ptr %62, i64 %64
  %66 = load double, ptr %65, align 8, !tbaa !72
  %67 = call nsz double @llvm.fmuladd.f64(double %54, double %61, double %66)
  store double %67, ptr %65, align 8, !tbaa !72
  br label %68

68:                                               ; preds = %49
  %69 = load i32, ptr %21, align 4, !tbaa !40
  %70 = add nsw i32 %69, 1
  store i32 %70, ptr %21, align 4, !tbaa !40
  br label %43, !llvm.loop !124

71:                                               ; preds = %43
  br label %72

72:                                               ; preds = %71
  %73 = load i32, ptr %20, align 4, !tbaa !40
  %74 = add nsw i32 %73, 1
  store i32 %74, ptr %20, align 4, !tbaa !40
  br label %36, !llvm.loop !125

75:                                               ; preds = %36
  store i32 0, ptr %20, align 4, !tbaa !40
  br label %76

76:                                               ; preds = %108, %75
  %77 = load i32, ptr %20, align 4, !tbaa !40
  %78 = load ptr, ptr %10, align 8, !tbaa !22
  %79 = getelementptr inbounds nuw %struct.AudioDeclickContext, ptr %78, i32 0, i32 11
  %80 = load i32, ptr %79, align 4, !tbaa !55
  %81 = icmp slt i32 %77, %80
  br i1 %81, label %82, label %111

82:                                               ; preds = %76
  %83 = load ptr, ptr %13, align 8, !tbaa !66
  %84 = load i32, ptr %20, align 4, !tbaa !40
  %85 = sext i32 %84 to i64
  %86 = getelementptr inbounds double, ptr %83, i64 %85
  %87 = load double, ptr %86, align 8, !tbaa !72
  %88 = call nsz double @llvm.fabs.f64(double %87)
  %89 = load double, ptr %12, align 8, !tbaa !72
  %90 = load double, ptr %19, align 8, !tbaa !72
  %91 = fmul nsz double %89, %90
  %92 = fcmp nsz ogt double %88, %91
  %93 = zext i1 %92 to i32
  %94 = trunc i32 %93 to i8
  %95 = load ptr, ptr %15, align 8, !tbaa !65
  %96 = load i32, ptr %20, align 4, !tbaa !40
  %97 = sext i32 %96 to i64
  %98 = getelementptr inbounds i8, ptr %95, i64 %97
  store i8 %94, ptr %98, align 1, !tbaa !119
  %99 = load ptr, ptr %17, align 8, !tbaa !66
  %100 = load i32, ptr %20, align 4, !tbaa !40
  %101 = sext i32 %100 to i64
  %102 = getelementptr inbounds double, ptr %99, i64 %101
  %103 = load double, ptr %102, align 8, !tbaa !72
  %104 = load ptr, ptr %18, align 8, !tbaa !66
  %105 = load i32, ptr %20, align 4, !tbaa !40
  %106 = sext i32 %105 to i64
  %107 = getelementptr inbounds double, ptr %104, i64 %106
  store double %103, ptr %107, align 8, !tbaa !72
  br label %108

108:                                              ; preds = %82
  %109 = load i32, ptr %20, align 4, !tbaa !40
  %110 = add nsw i32 %109, 1
  store i32 %110, ptr %20, align 4, !tbaa !40
  br label %76, !llvm.loop !126

111:                                              ; preds = %76
  store i32 0, ptr %20, align 4, !tbaa !40
  br label %112

112:                                              ; preds = %160, %111
  %113 = load i32, ptr %20, align 4, !tbaa !40
  %114 = load ptr, ptr %10, align 8, !tbaa !22
  %115 = getelementptr inbounds nuw %struct.AudioDeclickContext, ptr %114, i32 0, i32 11
  %116 = load i32, ptr %115, align 4, !tbaa !55
  %117 = icmp slt i32 %113, %116
  br i1 %117, label %118, label %163

118:                                              ; preds = %112
  %119 = load ptr, ptr %15, align 8, !tbaa !65
  %120 = load i32, ptr %20, align 4, !tbaa !40
  %121 = sext i32 %120 to i64
  %122 = getelementptr inbounds i8, ptr %119, i64 %121
  %123 = load i8, ptr %122, align 1, !tbaa !119
  %124 = icmp ne i8 %123, 0
  br i1 %124, label %126, label %125

125:                                              ; preds = %118
  br label %160

126:                                              ; preds = %118
  %127 = load i32, ptr %23, align 4, !tbaa !40
  %128 = icmp sge i32 %127, 0
  br i1 %128, label %129, label %158

129:                                              ; preds = %126
  %130 = load i32, ptr %20, align 4, !tbaa !40
  %131 = load i32, ptr %23, align 4, !tbaa !40
  %132 = add nsw i32 %131, 1
  %133 = icmp sgt i32 %130, %132
  br i1 %133, label %134, label %158

134:                                              ; preds = %129
  %135 = load i32, ptr %20, align 4, !tbaa !40
  %136 = load ptr, ptr %10, align 8, !tbaa !22
  %137 = getelementptr inbounds nuw %struct.AudioDeclickContext, ptr %136, i32 0, i32 10
  %138 = load i32, ptr %137, align 8, !tbaa !87
  %139 = load i32, ptr %23, align 4, !tbaa !40
  %140 = add nsw i32 %138, %139
  %141 = icmp sle i32 %135, %140
  br i1 %141, label %142, label %158

142:                                              ; preds = %134
  %143 = load i32, ptr %23, align 4, !tbaa !40
  %144 = add nsw i32 %143, 1
  store i32 %144, ptr %21, align 4, !tbaa !40
  br label %145

145:                                              ; preds = %154, %142
  %146 = load i32, ptr %21, align 4, !tbaa !40
  %147 = load i32, ptr %20, align 4, !tbaa !40
  %148 = icmp slt i32 %146, %147
  br i1 %148, label %149, label %157

149:                                              ; preds = %145
  %150 = load ptr, ptr %15, align 8, !tbaa !65
  %151 = load i32, ptr %21, align 4, !tbaa !40
  %152 = sext i32 %151 to i64
  %153 = getelementptr inbounds i8, ptr %150, i64 %152
  store i8 1, ptr %153, align 1, !tbaa !119
  br label %154

154:                                              ; preds = %149
  %155 = load i32, ptr %21, align 4, !tbaa !40
  %156 = add nsw i32 %155, 1
  store i32 %156, ptr %21, align 4, !tbaa !40
  br label %145, !llvm.loop !127

157:                                              ; preds = %145
  br label %158

158:                                              ; preds = %157, %134, %129, %126
  %159 = load i32, ptr %20, align 4, !tbaa !40
  store i32 %159, ptr %23, align 4, !tbaa !40
  br label %160

160:                                              ; preds = %158, %125
  %161 = load i32, ptr %20, align 4, !tbaa !40
  %162 = add nsw i32 %161, 1
  store i32 %162, ptr %20, align 4, !tbaa !40
  br label %112, !llvm.loop !128

163:                                              ; preds = %112
  %164 = load ptr, ptr %15, align 8, !tbaa !65
  %165 = load ptr, ptr %10, align 8, !tbaa !22
  %166 = getelementptr inbounds nuw %struct.AudioDeclickContext, ptr %165, i32 0, i32 9
  %167 = load i32, ptr %166, align 4, !tbaa !85
  %168 = sext i32 %167 to i64
  %169 = mul i64 %168, 1
  call void @llvm.memset.p0.i64(ptr align 1 %164, i8 0, i64 %169, i1 false)
  %170 = load ptr, ptr %15, align 8, !tbaa !65
  %171 = load ptr, ptr %10, align 8, !tbaa !22
  %172 = getelementptr inbounds nuw %struct.AudioDeclickContext, ptr %171, i32 0, i32 11
  %173 = load i32, ptr %172, align 4, !tbaa !55
  %174 = load ptr, ptr %10, align 8, !tbaa !22
  %175 = getelementptr inbounds nuw %struct.AudioDeclickContext, ptr %174, i32 0, i32 9
  %176 = load i32, ptr %175, align 4, !tbaa !85
  %177 = sub nsw i32 %173, %176
  %178 = sext i32 %177 to i64
  %179 = getelementptr inbounds i8, ptr %170, i64 %178
  %180 = load ptr, ptr %10, align 8, !tbaa !22
  %181 = getelementptr inbounds nuw %struct.AudioDeclickContext, ptr %180, i32 0, i32 9
  %182 = load i32, ptr %181, align 4, !tbaa !85
  %183 = sext i32 %182 to i64
  %184 = mul i64 %183, 1
  call void @llvm.memset.p0.i64(ptr align 1 %179, i8 0, i64 %184, i1 false)
  %185 = load ptr, ptr %10, align 8, !tbaa !22
  %186 = getelementptr inbounds nuw %struct.AudioDeclickContext, ptr %185, i32 0, i32 9
  %187 = load i32, ptr %186, align 4, !tbaa !85
  store i32 %187, ptr %20, align 4, !tbaa !40
  br label %188

188:                                              ; preds = %213, %163
  %189 = load i32, ptr %20, align 4, !tbaa !40
  %190 = load ptr, ptr %10, align 8, !tbaa !22
  %191 = getelementptr inbounds nuw %struct.AudioDeclickContext, ptr %190, i32 0, i32 11
  %192 = load i32, ptr %191, align 4, !tbaa !55
  %193 = load ptr, ptr %10, align 8, !tbaa !22
  %194 = getelementptr inbounds nuw %struct.AudioDeclickContext, ptr %193, i32 0, i32 9
  %195 = load i32, ptr %194, align 4, !tbaa !85
  %196 = sub nsw i32 %192, %195
  %197 = icmp slt i32 %189, %196
  br i1 %197, label %198, label %216

198:                                              ; preds = %188
  %199 = load ptr, ptr %15, align 8, !tbaa !65
  %200 = load i32, ptr %20, align 4, !tbaa !40
  %201 = sext i32 %200 to i64
  %202 = getelementptr inbounds i8, ptr %199, i64 %201
  %203 = load i8, ptr %202, align 1, !tbaa !119
  %204 = icmp ne i8 %203, 0
  br i1 %204, label %205, label %212

205:                                              ; preds = %198
  %206 = load i32, ptr %20, align 4, !tbaa !40
  %207 = load ptr, ptr %16, align 8, !tbaa !115
  %208 = load i32, ptr %22, align 4, !tbaa !40
  %209 = add nsw i32 %208, 1
  store i32 %209, ptr %22, align 4, !tbaa !40
  %210 = sext i32 %208 to i64
  %211 = getelementptr inbounds i32, ptr %207, i64 %210
  store i32 %206, ptr %211, align 4, !tbaa !40
  br label %212

212:                                              ; preds = %205, %198
  br label %213

213:                                              ; preds = %212
  %214 = load i32, ptr %20, align 4, !tbaa !40
  %215 = add nsw i32 %214, 1
  store i32 %215, ptr %20, align 4, !tbaa !40
  br label %188, !llvm.loop !129

216:                                              ; preds = %188
  %217 = load i32, ptr %22, align 4, !tbaa !40
  call void @llvm.lifetime.end.p0(i64 4, ptr %23) #11
  call void @llvm.lifetime.end.p0(i64 4, ptr %22) #11
  call void @llvm.lifetime.end.p0(i64 4, ptr %21) #11
  call void @llvm.lifetime.end.p0(i64 4, ptr %20) #11
  call void @llvm.lifetime.end.p0(i64 8, ptr %19) #11
  ret i32 %217
}