; Function Attrs: nofree norecurse nosync nounwind memory(argmem: readwrite) uwtable
define internal i32 @detect_clicks(ptr noundef readonly captures(none) %0, ptr readnone captures(none) %1, double noundef %2, ptr noundef captures(none) %3, ptr noundef readonly captures(none) %4, ptr noundef captures(none) %5, ptr noundef writeonly captures(none) %6, ptr noundef readonly captures(none) %7, ptr noundef writeonly captures(none) %8) #7 {
  %10 = getelementptr inbounds nuw i8, ptr %0, i64 24
  %11 = load double, ptr %10, align 8, !tbaa !114
  %12 = getelementptr inbounds nuw i8, ptr %0, i64 68
  %13 = load i32, ptr %12, align 4, !tbaa !49
  %14 = sext i32 %13 to i64
  %15 = shl nsw i64 %14, 3
  tail call void @llvm.memset.p0.i64(ptr align 8 %3, i8 0, i64 %15, i1 false)
  %16 = getelementptr inbounds nuw i8, ptr %0, i64 60
  %17 = load i32, ptr %16, align 4, !tbaa !88
  %18 = load i32, ptr %12, align 4, !tbaa !49
  %19 = icmp sge i32 %17, %18
  %.not7377 = icmp slt i32 %17, 0
  %or.cond = or i1 %19, %.not7377
  br i1 %or.cond, label %.preheader75, label %.preheader76.preheader

.preheader76.preheader:                           ; preds = %9
  %20 = add nuw nsw i32 %17, 1
  %21 = zext nneg i32 %17 to i64
  %wide.trip.count97 = sext i32 %18 to i64
  %wide.trip.count = zext nneg i32 %20 to i64
  br label %.preheader76

.preheader76:                                     ; preds = %.preheader76.preheader, %._crit_edge
  %indvars.iv94 = phi i64 [ %21, %.preheader76.preheader ], [ %indvars.iv.next95, %._crit_edge ]
  %22 = getelementptr inbounds nuw double, ptr %3, i64 %indvars.iv94
  %.promoted = load double, ptr %22, align 8, !tbaa !65
  br label %25

.preheader75:                                     ; preds = %._crit_edge, %9
  %23 = icmp sgt i32 %18, 0
  br i1 %23, label %.lr.ph, label %._crit_edge86

.lr.ph:                                           ; preds = %.preheader75
  %24 = fmul nsz double %2, %11
  br label %35

25:                                               ; preds = %.preheader76, %25
  %indvars.iv = phi i64 [ 0, %.preheader76 ], [ %indvars.iv.next, %25 ]
  %26 = phi double [ %.promoted, %.preheader76 ], [ %32, %25 ]
  %27 = getelementptr inbounds nuw double, ptr %4, i64 %indvars.iv
  %28 = load double, ptr %27, align 8, !tbaa !65
  %29 = sub nsw i64 %indvars.iv94, %indvars.iv
  %30 = getelementptr inbounds double, ptr %7, i64 %29
  %31 = load double, ptr %30, align 8, !tbaa !65
  %32 = tail call nsz double @llvm.fmuladd.f64(double %28, double %31, double %26)
  store double %32, ptr %22, align 8, !tbaa !65
  %indvars.iv.next = add nuw nsw i64 %indvars.iv, 1
  %exitcond.not = icmp eq i64 %indvars.iv.next, %wide.trip.count
  br i1 %exitcond.not, label %._crit_edge, label %25, !llvm.loop !123

._crit_edge:                                      ; preds = %25
  %indvars.iv.next95 = add nuw nsw i64 %indvars.iv94, 1
  %exitcond98.not = icmp eq i64 %indvars.iv.next95, %wide.trip.count97
  br i1 %exitcond98.not, label %.preheader75, label %.preheader76, !llvm.loop !124

.preheader74:                                     ; preds = %35
  %33 = icmp sgt i32 %45, 0
  br i1 %33, label %.lr.ph85, label %._crit_edge86

.lr.ph85:                                         ; preds = %.preheader74
  %34 = getelementptr inbounds nuw i8, ptr %0, i64 64
  %scevgep = getelementptr i8, ptr %5, i64 1
  br label %48

35:                                               ; preds = %.lr.ph, %35
  %indvars.iv99 = phi i64 [ 0, %.lr.ph ], [ %indvars.iv.next100, %35 ]
  %36 = getelementptr inbounds nuw double, ptr %3, i64 %indvars.iv99
  %37 = load double, ptr %36, align 8, !tbaa !65
  %38 = tail call nsz double @llvm.fabs.f64(double %37)
  %39 = fcmp nsz ogt double %38, %24
  %40 = zext i1 %39 to i8
  %41 = getelementptr inbounds nuw i8, ptr %5, i64 %indvars.iv99
  store i8 %40, ptr %41, align 1, !tbaa !118
  %42 = getelementptr inbounds nuw double, ptr %7, i64 %indvars.iv99
  %43 = load double, ptr %42, align 8, !tbaa !65
  %44 = getelementptr inbounds nuw double, ptr %8, i64 %indvars.iv99
  store double %43, ptr %44, align 8, !tbaa !65
  %indvars.iv.next100 = add nuw nsw i64 %indvars.iv99, 1
  %45 = load i32, ptr %12, align 4, !tbaa !49
  %46 = sext i32 %45 to i64
  %47 = icmp slt i64 %indvars.iv.next100, %46
  br i1 %47, label %35, label %.preheader74, !llvm.loop !125

48:                                               ; preds = %.lr.ph85, %.loopexit
  %49 = phi i32 [ %45, %.lr.ph85 ], [ %68, %.loopexit ]
  %indvars.iv106 = phi i64 [ 0, %.lr.ph85 ], [ %indvars.iv.next107, %.loopexit ]
  %.084 = phi i32 [ -1, %.lr.ph85 ], [ %.1, %.loopexit ]
  %50 = getelementptr inbounds nuw i8, ptr %5, i64 %indvars.iv106
  %51 = load i8, ptr %50, align 1, !tbaa !118
  %.not71 = icmp eq i8 %51, 0
  br i1 %.not71, label %.loopexit, label %52

52:                                               ; preds = %48
  %53 = icmp sgt i32 %.084, -1
  %54 = trunc nuw nsw i64 %indvars.iv106 to i32
  %55 = add nuw nsw i32 %.084, 1
  %56 = zext nneg i32 %55 to i64
  %57 = icmp samesign ugt i64 %indvars.iv106, %56
  %or.cond116 = select i1 %53, i1 %57, i1 false
  br i1 %or.cond116, label %58, label %.loopexit

58:                                               ; preds = %52
  %59 = load i32, ptr %34, align 8, !tbaa !90
  %60 = add nsw i32 %59, %.084
  %61 = sext i32 %60 to i64
  %.not72.not = icmp sgt i64 %indvars.iv106, %61
  br i1 %.not72.not, label %.loopexit, label %.lr.ph82.preheader

.lr.ph82.preheader:                               ; preds = %58
  %62 = zext nneg i32 %.084 to i64
  %scevgep102 = getelementptr i8, ptr %scevgep, i64 %62
  %63 = trunc i64 %indvars.iv106 to i32
  %64 = add i32 %63, -2
  %65 = sub i32 %64, %.084
  %66 = zext i32 %65 to i64
  %67 = add nuw nsw i64 %66, 1
  tail call void @llvm.memset.p0.i64(ptr noundef nonnull align 1 dereferenceable(1) %scevgep102, i8 1, i64 %67, i1 false), !tbaa !118
  %.pre = load i32, ptr %12, align 4, !tbaa !49
  br label %.loopexit

.loopexit:                                        ; preds = %.lr.ph82.preheader, %52, %58, %48
  %68 = phi i32 [ %49, %48 ], [ %49, %58 ], [ %49, %52 ], [ %.pre, %.lr.ph82.preheader ]
  %.1 = phi i32 [ %.084, %48 ], [ %54, %58 ], [ %54, %52 ], [ %54, %.lr.ph82.preheader ]
  %indvars.iv.next107 = add nuw nsw i64 %indvars.iv106, 1
  %69 = sext i32 %68 to i64
  %70 = icmp slt i64 %indvars.iv.next107, %69
  br i1 %70, label %48, label %._crit_edge86, !llvm.loop !126

._crit_edge86:                                    ; preds = %.loopexit, %.preheader75, %.preheader74
  %71 = load i32, ptr %16, align 4, !tbaa !88
  %72 = sext i32 %71 to i64
  tail call void @llvm.memset.p0.i64(ptr align 1 %5, i8 0, i64 %72, i1 false)
  %73 = load i32, ptr %12, align 4, !tbaa !49
  %74 = load i32, ptr %16, align 4, !tbaa !88
  %75 = sub nsw i32 %73, %74
  %76 = sext i32 %75 to i64
  %77 = getelementptr inbounds i8, ptr %5, i64 %76
  %78 = sext i32 %74 to i64
  tail call void @llvm.memset.p0.i64(ptr align 1 %77, i8 0, i64 %78, i1 false)
  %79 = load i32, ptr %16, align 4, !tbaa !88
  %80 = load i32, ptr %12, align 4, !tbaa !49
  %81 = sub nsw i32 %80, %79
  %82 = icmp slt i32 %79, %81
  br i1 %82, label %.lr.ph90.preheader, label %._crit_edge91

.lr.ph90.preheader:                               ; preds = %._crit_edge86
  %83 = sext i32 %79 to i64
  br label %.lr.ph90

.lr.ph90:                                         ; preds = %.lr.ph90.preheader, %93
  %84 = phi i32 [ %79, %.lr.ph90.preheader ], [ %94, %93 ]
  %85 = phi i32 [ %80, %.lr.ph90.preheader ], [ %95, %93 ]
  %indvars.iv109 = phi i64 [ %83, %.lr.ph90.preheader ], [ %indvars.iv.next110, %93 ]
  %.06488 = phi i32 [ 0, %.lr.ph90.preheader ], [ %.165, %93 ]
  %86 = getelementptr inbounds i8, ptr %5, i64 %indvars.iv109
  %87 = load i8, ptr %86, align 1, !tbaa !118
  %.not = icmp eq i8 %87, 0
  br i1 %.not, label %93, label %88

88:                                               ; preds = %.lr.ph90
  %89 = add nsw i32 %.06488, 1
  %90 = sext i32 %.06488 to i64
  %91 = getelementptr inbounds i32, ptr %6, i64 %90
  %92 = trunc nsw i64 %indvars.iv109 to i32
  store i32 %92, ptr %91, align 4, !tbaa !117
  %.pre112 = load i32, ptr %12, align 4, !tbaa !49
  %.pre113 = load i32, ptr %16, align 4, !tbaa !88
  br label %93

93:                                               ; preds = %.lr.ph90, %88
  %94 = phi i32 [ %.pre113, %88 ], [ %84, %.lr.ph90 ]
  %95 = phi i32 [ %.pre112, %88 ], [ %85, %.lr.ph90 ]
  %.165 = phi i32 [ %89, %88 ], [ %.06488, %.lr.ph90 ]
  %indvars.iv.next110 = add nsw i64 %indvars.iv109, 1
  %96 = sub nsw i32 %95, %94
  %97 = sext i32 %96 to i64
  %98 = icmp slt i64 %indvars.iv.next110, %97
  br i1 %98, label %.lr.ph90, label %._crit_edge91, !llvm.loop !127

._crit_edge91:                                    ; preds = %93, %._crit_edge86
  %.064.lcssa = phi i32 [ 0, %._crit_edge86 ], [ %.165, %93 ]
  ret i32 %.064.lcssa
}